; Function Attrs: nounwind uwtable
define void @Sim_UtilInfoDetectNews(ptr noundef readonly captures(none) %0, ptr noundef readonly captures(none) %1, i32 noundef %2, ptr noundef captures(none) initializes((4, 8)) %3) local_unnamed_addr #7 {
  %5 = getelementptr inbounds nuw i8, ptr %3, i64 4
  store i32 0, ptr %5, align 4, !tbaa !16
  %6 = icmp sgt i32 %2, 0
  br i1 %6, label %.lr.ph, label %._crit_edge

.lr.ph:                                           ; preds = %4
  %.phi.trans.insert.i = getelementptr inbounds nuw i8, ptr %3, i64 8
  %wide.trip.count = zext nneg i32 %2 to i64
  br label %7

7:                                                ; preds = %.lr.ph, %.loopexit
  %indvars.iv = phi i64 [ 0, %.lr.ph ], [ %indvars.iv.next, %.loopexit ]
  %8 = getelementptr inbounds nuw i32, ptr %1, i64 %indvars.iv
  %9 = load i32, ptr %8, align 4, !tbaa !14
  %10 = getelementptr inbounds nuw i32, ptr %0, i64 %indvars.iv
  %11 = load i32, ptr %10, align 4, !tbaa !14
  %12 = xor i32 %11, -1
  %13 = and i32 %9, %12
  %.not = icmp eq i32 %13, 0
  br i1 %.not, label %.loopexit, label %.preheader

.preheader:                                       ; preds = %7
  %indvars.iv.tr = trunc i64 %indvars.iv to i32
  %14 = shl i32 %indvars.iv.tr, 5
  br label %15

15:                                               ; preds = %.preheader, %48
  %.01417 = phi i32 [ 0, %.preheader ], [ %49, %48 ]
  %16 = shl nuw i32 1, %.01417
  %17 = and i32 %16, %13
  %.not16 = icmp eq i32 %17, 0
  br i1 %.not16, label %48, label %18

18:                                               ; preds = %15
  %19 = add nuw nsw i32 %.01417, %14
  %20 = load i32, ptr %5, align 4, !tbaa !16
  %21 = load i32, ptr %3, align 8, !tbaa !19
  %22 = icmp eq i32 %20, %21
  br i1 %22, label %23, label %.Vec_IntGrow.exit10_crit_edge.i

.Vec_IntGrow.exit10_crit_edge.i:                  ; preds = %18
  %.pre.i = load ptr, ptr %.phi.trans.insert.i, align 8, !tbaa !20
  br label %Vec_IntPush.exit

23:                                               ; preds = %18
  %24 = icmp slt i32 %20, 16
  br i1 %24, label %25, label %32

25:                                               ; preds = %23
  %26 = load ptr, ptr %.phi.trans.insert.i, align 8, !tbaa !20
  %.not9.i.i = icmp eq ptr %26, null
  br i1 %.not9.i.i, label %29, label %27

27:                                               ; preds = %25
  %28 = tail call dereferenceable_or_null(64) ptr @realloc(ptr noundef nonnull %26, i64 noundef 64) #19
  br label %Vec_IntGrow.exit.i

29:                                               ; preds = %25
  %30 = tail call noalias dereferenceable_or_null(64) ptr @malloc(i64 noundef 64) #17
  br label %Vec_IntGrow.exit.i

Vec_IntGrow.exit.i:                               ; preds = %29, %27
  %31 = phi ptr [ %28, %27 ], [ %30, %29 ]
  store ptr %31, ptr %.phi.trans.insert.i, align 8, !tbaa !20
  store i32 16, ptr %3, align 8, !tbaa !19
  br label %Vec_IntPush.exit

32:                                               ; preds = %23
  %33 = shl nuw nsw i32 %20, 1
  %34 = load ptr, ptr %.phi.trans.insert.i, align 8, !tbaa !20
  %.not9.i9.i = icmp eq ptr %34, null
  %35 = zext nneg i32 %33 to i64
  %36 = shl nuw nsw i64 %35, 2
  br i1 %.not9.i9.i, label %39, label %37

37:                                               ; preds = %32
  %38 = tail call ptr @realloc(ptr noundef nonnull %34, i64 noundef %36) #19
  br label %41

39:                                               ; preds = %32
  %40 = tail call noalias ptr @malloc(i64 noundef %36) #17
  br label %41

41:                                               ; preds = %39, %37
  %42 = phi ptr [ %38, %37 ], [ %40, %39 ]
  store ptr %42, ptr %.phi.trans.insert.i, align 8, !tbaa !20
  store i32 %33, ptr %3, align 8, !tbaa !19
  br label %Vec_IntPush.exit

Vec_IntPush.exit:                                 ; preds = %.Vec_IntGrow.exit10_crit_edge.i, %Vec_IntGrow.exit.i, %41
  %43 = phi ptr [ %.pre.i, %.Vec_IntGrow.exit10_crit_edge.i ], [ %42, %41 ], [ %31, %Vec_IntGrow.exit.i ]
  %44 = load i32, ptr %5, align 4, !tbaa !16
  %45 = add nsw i32 %44, 1
  store i32 %45, ptr %5, align 4, !tbaa !16
  %46 = sext i32 %44 to i64
  %47 = getelementptr inbounds i32, ptr %43, i64 %46
  store i32 %19, ptr %47, align 4, !tbaa !14
  br label %48

48:                                               ; preds = %15, %Vec_IntPush.exit
  %49 = add nuw nsw i32 %.01417, 1
  %exitcond.not = icmp eq i32 %49, 32
  br i1 %exitcond.not, label %.loopexit, label %15, !llvm.loop !23

.loopexit:                                        ; preds = %48, %7
  %indvars.iv.next = add nuw nsw i64 %indvars.iv, 1
  %exitcond20.not = icmp eq i64 %indvars.iv.next, %wide.trip.count
  br i1 %exitcond20.not, label %._crit_edge, label %7, !llvm.loop !24

._crit_edge:                                      ; preds = %.loopexit, %4
  ret void
}